target datalayout = "e-m:e-p270:32:32-p271:32:32-p272:64:64-i64:64-i128:128-f80:128-n8:16:32:64-S128"
target triple = "x86_64-pc-linux-gnu"

%struct.PACKET = type { ptr, i64 }

@smbuf = internal global [256 x i8] zeroinitializer, align 16
@.str.25 = private unnamed_addr constant [29 x i8] c"../openssl/test/packettest.c\00", align 1
@.str.27 = private unnamed_addr constant [23 x i8] c"PACKET_remaining(&pkt)\00", align 1
@.str.28 = private unnamed_addr constant [2 x i8] c"4\00", align 1
@.str.34 = private unnamed_addr constant [38 x i8] c"PACKET_buf_init(&pkt, smbuf, BUF_LEN)\00", align 1
@.str.50 = private unnamed_addr constant [5 x i8] c"0xfe\00", align 1
@.str.53 = private unnamed_addr constant [34 x i8] c"PACKET_forward(&pkt, BUF_LEN - 8)\00", align 1
@.str.70 = private unnamed_addr constant [9 x i8] c"bytes[0]\00", align 1
@.str.71 = private unnamed_addr constant [2 x i8] c"2\00", align 1
@.str.72 = private unnamed_addr constant [9 x i8] c"bytes[1]\00", align 1
@.str.73 = private unnamed_addr constant [9 x i8] c"bytes[2]\00", align 1
@.str.74 = private unnamed_addr constant [2 x i8] c"6\00", align 1
@.str.75 = private unnamed_addr constant [9 x i8] c"bytes[3]\00", align 1
@.str.76 = private unnamed_addr constant [2 x i8] c"8\00", align 1
@.str.78 = private unnamed_addr constant [5 x i8] c"0xf8\00", align 1
@.str.79 = private unnamed_addr constant [5 x i8] c"0xfa\00", align 1
@.str.80 = private unnamed_addr constant [5 x i8] c"0xfc\00", align 1
@.str.81 = private unnamed_addr constant [34 x i8] c"PACKET_copy_bytes(&pkt, bytes, 4)\00", align 1
@.str.82 = private unnamed_addr constant [12 x i8] c"BUF_LEN - 4\00", align 1

; Function Attrs: inlinehint nounwind uwtable
define internal void @packet_forward(ptr noundef %0, i64 noundef %1) #4 {
  %3 = alloca ptr, align 8
  %4 = alloca i64, align 8
  store ptr %0, ptr %3, align 8, !tbaa !33
  store i64 %1, ptr %4, align 8, !tbaa !11
  %5 = load i64, ptr %4, align 8, !tbaa !11
  %6 = load ptr, ptr %3, align 8, !tbaa !33
  %7 = getelementptr inbounds nuw %struct.PACKET, ptr %6, i32 0, i32 0
  %8 = load ptr, ptr %7, align 8, !tbaa !29
  %9 = getelementptr inbounds nuw i8, ptr %8, i64 %5
  store ptr %9, ptr %7, align 8, !tbaa !29
  %10 = load i64, ptr %4, align 8, !tbaa !11
  %11 = load ptr, ptr %3, align 8, !tbaa !33
  %12 = getelementptr inbounds nuw %struct.PACKET, ptr %11, i32 0, i32 1
  %13 = load i64, ptr %12, align 8, !tbaa !31
  %14 = sub i64 %13, %10
  store i64 %14, ptr %12, align 8, !tbaa !31
  ret void
}

; Function Attrs: inlinehint nounwind uwtable
define internal i32 @PACKET_peek_copy_bytes(ptr noundef %0, ptr noundef %1, i64 noundef %2) #4 {
  %4 = alloca i32, align 4
  %5 = alloca ptr, align 8
  %6 = alloca ptr, align 8
  %7 = alloca i64, align 8
  store ptr %0, ptr %5, align 8, !tbaa !33
  store ptr %1, ptr %6, align 8, !tbaa !13
  store i64 %2, ptr %7, align 8, !tbaa !11
  %8 = load ptr, ptr %5, align 8, !tbaa !33
  %9 = call i64 @PACKET_remaining(ptr noundef %8)
  %10 = load i64, ptr %7, align 8, !tbaa !11
  %11 = icmp ult i64 %9, %10
  br i1 %11, label %12, label %13

12:                                               ; preds = %3
  store i32 0, ptr %4, align 4
  br label %19

13:                                               ; preds = %3
  %14 = load ptr, ptr %6, align 8, !tbaa !13
  %15 = load ptr, ptr %5, align 8, !tbaa !33
  %16 = getelementptr inbounds nuw %struct.PACKET, ptr %15, i32 0, i32 0
  %17 = load ptr, ptr %16, align 8, !tbaa !29
  %18 = load i64, ptr %7, align 8, !tbaa !11
  call void @llvm.memcpy.p0.p0.i64(ptr align 1 %14, ptr align 1 %17, i64 %18, i1 false)
  store i32 1, ptr %4, align 4
  br label %19

19:                                               ; preds = %13, %12
  %20 = load i32, ptr %4, align 4
  ret i32 %20
}

; Function Attrs: inlinehint nounwind uwtable
define internal i32 @PACKET_forward(ptr noundef %0, i64 noundef %1) #4 {
  %3 = alloca i32, align 4
  %4 = alloca ptr, align 8
  %5 = alloca i64, align 8
  store ptr %0, ptr %4, align 8, !tbaa !33
  store i64 %1, ptr %5, align 8, !tbaa !11
  %6 = load ptr, ptr %4, align 8, !tbaa !33
  %7 = call i64 @PACKET_remaining(ptr noundef %6)
  %8 = load i64, ptr %5, align 8, !tbaa !11
  %9 = icmp ult i64 %7, %8
  br i1 %9, label %10, label %11

10:                                               ; preds = %2
  store i32 0, ptr %3, align 4
  br label %14

11:                                               ; preds = %2
  %12 = load ptr, ptr %4, align 8, !tbaa !33
  %13 = load i64, ptr %5, align 8, !tbaa !11
  call void @packet_forward(ptr noundef %12, i64 noundef %13)
  store i32 1, ptr %3, align 4
  br label %14

14:                                               ; preds = %11, %10
  %15 = load i32, ptr %3, align 4
  ret i32 %15
}

; Function Attrs: inlinehint nounwind uwtable
define internal i64 @PACKET_remaining(ptr noundef %0) #4 {
  %2 = alloca ptr, align 8
  store ptr %0, ptr %2, align 8, !tbaa !33
  %3 = load ptr, ptr %2, align 8, !tbaa !33
  %4 = getelementptr inbounds nuw %struct.PACKET, ptr %3, i32 0, i32 1
  %5 = load i64, ptr %4, align 8, !tbaa !31
  ret i64 %5
}

; Function Attrs: inlinehint nounwind uwtable
define internal i32 @PACKET_copy_bytes(ptr noundef %0, ptr noundef %1, i64 noundef %2) #4 {
  %4 = alloca i32, align 4
  %5 = alloca ptr, align 8
  %6 = alloca ptr, align 8
  %7 = alloca i64, align 8
  store ptr %0, ptr %5, align 8, !tbaa !33
  store ptr %1, ptr %6, align 8, !tbaa !13
  store i64 %2, ptr %7, align 8, !tbaa !11
  %8 = load ptr, ptr %5, align 8, !tbaa !33
  %9 = load ptr, ptr %6, align 8, !tbaa !13
  %10 = load i64, ptr %7, align 8, !tbaa !11
  %11 = call i32 @PACKET_peek_copy_bytes(ptr noundef %8, ptr noundef %9, i64 noundef %10)
  %12 = icmp ne i32 %11, 0
  br i1 %12, label %14, label %13

13:                                               ; preds = %3
  store i32 0, ptr %4, align 4
  br label %17

14:                                               ; preds = %3
  %15 = load ptr, ptr %5, align 8, !tbaa !33
  %16 = load i64, ptr %7, align 8, !tbaa !11
  call void @packet_forward(ptr noundef %15, i64 noundef %16)
  store i32 1, ptr %4, align 4
  br label %17

17:                                               ; preds = %14, %13
  %18 = load i32, ptr %4, align 4
  ret i32 %18
}

; Function Attrs: inlinehint nounwind uwtable
define internal i32 @PACKET_buf_init(ptr noundef %0, ptr noundef %1, i64 noundef %2) #4 {
  %4 = alloca i32, align 4
  %5 = alloca ptr, align 8
  %6 = alloca ptr, align 8
  %7 = alloca i64, align 8
  store ptr %0, ptr %5, align 8, !tbaa !33
  store ptr %1, ptr %6, align 8, !tbaa !13
  store i64 %2, ptr %7, align 8, !tbaa !11
  %8 = load i64, ptr %7, align 8, !tbaa !11
  %9 = icmp ugt i64 %8, 9223372036854775807
  br i1 %9, label %10, label %11

10:                                               ; preds = %3
  store i32 0, ptr %4, align 4
  br label %18

11:                                               ; preds = %3
  %12 = load ptr, ptr %6, align 8, !tbaa !13
  %13 = load ptr, ptr %5, align 8, !tbaa !33
  %14 = getelementptr inbounds nuw %struct.PACKET, ptr %13, i32 0, i32 0
  store ptr %12, ptr %14, align 8, !tbaa !29
  %15 = load i64, ptr %7, align 8, !tbaa !11
  %16 = load ptr, ptr %5, align 8, !tbaa !33
  %17 = getelementptr inbounds nuw %struct.PACKET, ptr %16, i32 0, i32 1
  store i64 %15, ptr %17, align 8, !tbaa !31
  store i32 1, ptr %4, align 4
  br label %18

18:                                               ; preds = %11, %10
  %19 = load i32, ptr %4, align 4
  ret i32 %19
}

; Function Attrs: nounwind uwtable
define internal i32 @test_PACKET_copy_bytes() #0 {
  %1 = alloca i32, align 4
  %2 = alloca [4 x i8], align 1
  %3 = alloca %struct.PACKET, align 8
  %4 = alloca i32, align 4
  call void @llvm.lifetime.start.p0(i64 4, ptr %2) #7
  call void @llvm.lifetime.start.p0(i64 16, ptr %3) #7
  %5 = call i32 @PACKET_buf_init(ptr noundef %3, ptr noundef @smbuf, i64 noundef 255)
  %6 = icmp ne i32 %5, 0
  %7 = zext i1 %6 to i32
  %8 = call i32 @test_true(ptr noundef @.str.25, i32 noundef 183, ptr noundef @.str.34, i32 noundef %7)
  %9 = icmp ne i32 %8, 0
  br i1 %9, label %10, label %80

10:                                               ; preds = %0
  %11 = getelementptr inbounds [4 x i8], ptr %2, i64 0, i64 0
  %12 = call i32 @PACKET_copy_bytes(ptr noundef %3, ptr noundef %11, i64 noundef 4)
  %13 = icmp ne i32 %12, 0
  %14 = zext i1 %13 to i32
  %15 = call i32 @test_true(ptr noundef @.str.25, i32 noundef 184, ptr noundef @.str.81, i32 noundef %14)
  %16 = icmp ne i32 %15, 0
  br i1 %16, label %17, label %80

17:                                               ; preds = %10
  %18 = getelementptr inbounds [4 x i8], ptr %2, i64 0, i64 0
  %19 = load i8, ptr %18, align 1, !tbaa !8
  %20 = call i32 @test_char_eq(ptr noundef @.str.25, i32 noundef 185, ptr noundef @.str.70, ptr noundef @.str.71, i8 noundef signext %19, i8 noundef signext 2)
  %21 = icmp ne i32 %20, 0
  br i1 %21, label %22, label %80

22:                                               ; preds = %17
  %23 = getelementptr inbounds [4 x i8], ptr %2, i64 0, i64 1
  %24 = load i8, ptr %23, align 1, !tbaa !8
  %25 = call i32 @test_char_eq(ptr noundef @.str.25, i32 noundef 186, ptr noundef @.str.72, ptr noundef @.str.28, i8 noundef signext %24, i8 noundef signext 4)
  %26 = icmp ne i32 %25, 0
  br i1 %26, label %27, label %80

27:                                               ; preds = %22
  %28 = getelementptr inbounds [4 x i8], ptr %2, i64 0, i64 2
  %29 = load i8, ptr %28, align 1, !tbaa !8
  %30 = call i32 @test_char_eq(ptr noundef @.str.25, i32 noundef 187, ptr noundef @.str.73, ptr noundef @.str.74, i8 noundef signext %29, i8 noundef signext 6)
  %31 = icmp ne i32 %30, 0
  br i1 %31, label %32, label %80

32:                                               ; preds = %27
  %33 = getelementptr inbounds [4 x i8], ptr %2, i64 0, i64 3
  %34 = load i8, ptr %33, align 1, !tbaa !8
  %35 = call i32 @test_char_eq(ptr noundef @.str.25, i32 noundef 188, ptr noundef @.str.75, ptr noundef @.str.76, i8 noundef signext %34, i8 noundef signext 8)
  %36 = icmp ne i32 %35, 0
  br i1 %36, label %37, label %80

37:                                               ; preds = %32
  %38 = call i64 @PACKET_remaining(ptr noundef %3)
  %39 = call i32 @test_size_t_eq(ptr noundef @.str.25, i32 noundef 189, ptr noundef @.str.27, ptr noundef @.str.82, i64 noundef %38, i64 noundef 251)
  %40 = icmp ne i32 %39, 0
  br i1 %40, label %41, label %80

41:                                               ; preds = %37
  %42 = call i32 @PACKET_forward(ptr noundef %3, i64 noundef 247)
  %43 = icmp ne i32 %42, 0
  %44 = zext i1 %43 to i32
  %45 = call i32 @test_true(ptr noundef @.str.25, i32 noundef 190, ptr noundef @.str.53, i32 noundef %44)
  %46 = icmp ne i32 %45, 0
  br i1 %46, label %47, label %80

47:                                               ; preds = %41
  %48 = getelementptr inbounds [4 x i8], ptr %2, i64 0, i64 0
  %49 = call i32 @PACKET_copy_bytes(ptr noundef %3, ptr noundef %48, i64 noundef 4)
  %50 = icmp ne i32 %49, 0
  %51 = zext i1 %50 to i32
  %52 = call i32 @test_true(ptr noundef @.str.25, i32 noundef 191, ptr noundef @.str.81, i32 noundef %51)
  %53 = icmp ne i32 %52, 0
  br i1 %53, label %54, label %80

54:                                               ; preds = %47
  %55 = getelementptr inbounds [4 x i8], ptr %2, i64 0, i64 0
  %56 = load i8, ptr %55, align 1, !tbaa !8
  %57 = call i32 @test_uchar_eq(ptr noundef @.str.25, i32 noundef 192, ptr noundef @.str.70, ptr noundef @.str.78, i8 noundef zeroext %56, i8 noundef zeroext -8)
  %58 = icmp ne i32 %57, 0
  br i1 %58, label %59, label %80

59:                                               ; preds = %54
  %60 = getelementptr inbounds [4 x i8], ptr %2, i64 0, i64 1
  %61 = load i8, ptr %60, align 1, !tbaa !8
  %62 = call i32 @test_uchar_eq(ptr noundef @.str.25, i32 noundef 193, ptr noundef @.str.72, ptr noundef @.str.79, i8 noundef zeroext %61, i8 noundef zeroext -6)
  %63 = icmp ne i32 %62, 0
  br i1 %63, label %64, label %80

64:                                               ; preds = %59
  %65 = getelementptr inbounds [4 x i8], ptr %2, i64 0, i64 2
  %66 = load i8, ptr %65, align 1, !tbaa !8
  %67 = call i32 @test_uchar_eq(ptr noundef @.str.25, i32 noundef 194, ptr noundef @.str.73, ptr noundef @.str.80, i8 noundef zeroext %66, i8 noundef zeroext -4)
  %68 = icmp ne i32 %67, 0
  br i1 %68, label %69, label %80

69:                                               ; preds = %64
  %70 = getelementptr inbounds [4 x i8], ptr %2, i64 0, i64 3
  %71 = load i8, ptr %70, align 1, !tbaa !8
  %72 = call i32 @test_uchar_eq(ptr noundef @.str.25, i32 noundef 195, ptr noundef @.str.75, ptr noundef @.str.50, i8 noundef zeroext %71, i8 noundef zeroext -2)
  %73 = icmp ne i32 %72, 0
  br i1 %73, label %74, label %80

74:                                               ; preds = %69
  %75 = call i64 @PACKET_remaining(ptr noundef %3)
  %76 = icmp ne i64 %75, 0
  %77 = zext i1 %76 to i32
  %78 = call i32 @test_false(ptr noundef @.str.25, i32 noundef 196, ptr noundef @.str.27, i32 noundef %77)
  %79 = icmp ne i32 %78, 0
  br i1 %79, label %81, label %80

80:                                               ; preds = %74, %69, %64, %59, %54, %47, %41, %37, %32, %27, %22, %17, %10, %0
  store i32 0, ptr %1, align 4
  store i32 1, ptr %4, align 4
  br label %82

81:                                               ; preds = %74
  store i32 1, ptr %1, align 4
  store i32 1, ptr %4, align 4
  br label %82

82:                                               ; preds = %81, %80
  call void @llvm.lifetime.end.p0(i64 16, ptr %3) #7
  call void @llvm.lifetime.end.p0(i64 4, ptr %2) #7
  %83 = load i32, ptr %1, align 4
  ret i32 %83
}