; Function Attrs: nounwind uwtable
define internal range(i32 0, 2) i32 @test_PACKET_copy_bytes() #0 {
  %1 = tail call i32 @test_true(ptr noundef nonnull @.str.25, i32 noundef 183, ptr noundef nonnull @.str.34, i32 noundef 1) #6
  %.not = icmp eq i32 %1, 0
  br i1 %.not, label %27, label %PACKET_copy_bytes.exit

PACKET_copy_bytes.exit:                           ; preds = %0
  %2 = load i32, ptr @smbuf, align 16
  %.sroa.6.0.extract.shift = lshr i32 %2, 8
  %.sroa.6.0.extract.trunc = trunc i32 %.sroa.6.0.extract.shift to i8
  %.sroa.8.0.extract.shift = lshr i32 %2, 16
  %.sroa.8.0.extract.trunc = trunc i32 %.sroa.8.0.extract.shift to i8
  %.sroa.10.0.extract.shift = lshr i32 %2, 24
  %.sroa.10.0.extract.trunc = trunc nuw i32 %.sroa.10.0.extract.shift to i8
  %3 = tail call i32 @test_true(ptr noundef nonnull @.str.25, i32 noundef 184, ptr noundef nonnull @.str.81, i32 noundef 1) #6
  %.not1 = icmp eq i32 %3, 0
  br i1 %.not1, label %27, label %4

4:                                                ; preds = %PACKET_copy_bytes.exit
  %.sroa.029.0.extract.trunc = trunc i32 %2 to i8
  %5 = tail call i32 @test_char_eq(ptr noundef nonnull @.str.25, i32 noundef 185, ptr noundef nonnull @.str.70, ptr noundef nonnull @.str.71, i8 noundef signext %.sroa.029.0.extract.trunc, i8 noundef signext 2) #6
  %.not2 = icmp eq i32 %5, 0
  br i1 %.not2, label %27, label %6

6:                                                ; preds = %4
  %7 = tail call i32 @test_char_eq(ptr noundef nonnull @.str.25, i32 noundef 186, ptr noundef nonnull @.str.72, ptr noundef nonnull @.str.28, i8 noundef signext %.sroa.6.0.extract.trunc, i8 noundef signext 4) #6
  %.not3 = icmp eq i32 %7, 0
  br i1 %.not3, label %27, label %8

8:                                                ; preds = %6
  %9 = tail call i32 @test_char_eq(ptr noundef nonnull @.str.25, i32 noundef 187, ptr noundef nonnull @.str.73, ptr noundef nonnull @.str.74, i8 noundef signext %.sroa.8.0.extract.trunc, i8 noundef signext 6) #6
  %.not4 = icmp eq i32 %9, 0
  br i1 %.not4, label %27, label %10

10:                                               ; preds = %8
  %11 = tail call i32 @test_char_eq(ptr noundef nonnull @.str.25, i32 noundef 188, ptr noundef nonnull @.str.75, ptr noundef nonnull @.str.76, i8 noundef signext %.sroa.10.0.extract.trunc, i8 noundef signext 8) #6
  %.not5 = icmp eq i32 %11, 0
  br i1 %.not5, label %27, label %12

12:                                               ; preds = %10
  %13 = tail call i32 @test_size_t_eq(ptr noundef nonnull @.str.25, i32 noundef 189, ptr noundef nonnull @.str.27, ptr noundef nonnull @.str.82, i64 noundef 251, i64 noundef 251) #6
  %.not6 = icmp eq i32 %13, 0
  br i1 %.not6, label %27, label %PACKET_forward.exit

PACKET_forward.exit:                              ; preds = %12
  %14 = tail call i32 @test_true(ptr noundef nonnull @.str.25, i32 noundef 190, ptr noundef nonnull @.str.53, i32 noundef 1) #6
  %.not7 = icmp eq i32 %14, 0
  br i1 %.not7, label %27, label %PACKET_copy_bytes.exit18

PACKET_copy_bytes.exit18:                         ; preds = %PACKET_forward.exit
  %15 = load i32, ptr getelementptr inbounds nuw (i8, ptr @smbuf, i64 251), align 1
  %.sroa.6.0.extract.shift32 = lshr i32 %15, 8
  %.sroa.6.0.extract.trunc33 = trunc i32 %.sroa.6.0.extract.shift32 to i8
  %.sroa.8.0.extract.shift35 = lshr i32 %15, 16
  %.sroa.8.0.extract.trunc36 = trunc i32 %.sroa.8.0.extract.shift35 to i8
  %.sroa.10.0.extract.shift38 = lshr i32 %15, 24
  %.sroa.10.0.extract.trunc39 = trunc nuw i32 %.sroa.10.0.extract.shift38 to i8
  %16 = tail call i32 @test_true(ptr noundef nonnull @.str.25, i32 noundef 191, ptr noundef nonnull @.str.81, i32 noundef 1) #6
  %.not8 = icmp eq i32 %16, 0
  br i1 %.not8, label %27, label %17

17:                                               ; preds = %PACKET_copy_bytes.exit18
  %.sroa.029.0.extract.trunc31 = trunc i32 %15 to i8
  %18 = tail call i32 @test_uchar_eq(ptr noundef nonnull @.str.25, i32 noundef 192, ptr noundef nonnull @.str.70, ptr noundef nonnull @.str.78, i8 noundef zeroext %.sroa.029.0.extract.trunc31, i8 noundef zeroext -8) #6
  %.not9 = icmp eq i32 %18, 0
  br i1 %.not9, label %27, label %19

19:                                               ; preds = %17
  %20 = tail call i32 @test_uchar_eq(ptr noundef nonnull @.str.25, i32 noundef 193, ptr noundef nonnull @.str.72, ptr noundef nonnull @.str.79, i8 noundef zeroext %.sroa.6.0.extract.trunc33, i8 noundef zeroext -6) #6
  %.not10 = icmp eq i32 %20, 0
  br i1 %.not10, label %27, label %21

21:                                               ; preds = %19
  %22 = tail call i32 @test_uchar_eq(ptr noundef nonnull @.str.25, i32 noundef 194, ptr noundef nonnull @.str.73, ptr noundef nonnull @.str.80, i8 noundef zeroext %.sroa.8.0.extract.trunc36, i8 noundef zeroext -4) #6
  %.not11 = icmp eq i32 %22, 0
  br i1 %.not11, label %27, label %23

23:                                               ; preds = %21
  %24 = tail call i32 @test_uchar_eq(ptr noundef nonnull @.str.25, i32 noundef 195, ptr noundef nonnull @.str.75, ptr noundef nonnull @.str.50, i8 noundef zeroext %.sroa.10.0.extract.trunc39, i8 noundef zeroext -2) #6
  %.not12 = icmp eq i32 %24, 0
  br i1 %.not12, label %27, label %25

25:                                               ; preds = %23
  %26 = tail call i32 @test_false(ptr noundef nonnull @.str.25, i32 noundef 196, ptr noundef nonnull @.str.27, i32 noundef 0) #6
  %.not13 = icmp ne i32 %26, 0
  %spec.select = zext i1 %.not13 to i32
  br label %27

27:                                               ; preds = %25, %0, %PACKET_copy_bytes.exit, %4, %6, %8, %10, %12, %PACKET_forward.exit, %PACKET_copy_bytes.exit18, %17, %19, %21, %23
  %.0 = phi i32 [ 0, %23 ], [ 0, %21 ], [ 0, %19 ], [ 0, %17 ], [ 0, %PACKET_copy_bytes.exit18 ], [ 0, %PACKET_forward.exit ], [ 0, %12 ], [ 0, %10 ], [ 0, %8 ], [ 0, %6 ], [ 0, %4 ], [ 0, %PACKET_copy_bytes.exit ], [ 0, %0 ], [ %spec.select, %25 ]
  ret i32 %.0
}